target datalayout = "e-m:e-p270:32:32-p271:32:32-p272:64:64-i64:64-i128:128-f80:128-n8:16:32:64-S128"
target triple = "x86_64-unknown-linux-gnu"

%"class.std::vector" = type { %"struct.std::_Vector_base" }
%"struct.std::_Vector_base" = type { %"struct.std::_Vector_base<ClipperLib::IntPoint, std::allocator<ClipperLib::IntPoint>>::_Vector_impl" }
%"struct.std::_Vector_base<ClipperLib::IntPoint, std::allocator<ClipperLib::IntPoint>>::_Vector_impl" = type { %"struct.std::_Vector_base<ClipperLib::IntPoint, std::allocator<ClipperLib::IntPoint>>::_Vector_impl_data" }
%"struct.std::_Vector_base<ClipperLib::IntPoint, std::allocator<ClipperLib::IntPoint>>::_Vector_impl_data" = type { ptr, ptr, ptr }
%"struct.std::_Vector_base.29" = type { %"struct.std::_Vector_base<std::vector<ClipperLib::IntPoint>, std::allocator<std::vector<ClipperLib::IntPoint>>>::_Vector_impl" }
%"struct.std::_Vector_base<std::vector<ClipperLib::IntPoint>, std::allocator<std::vector<ClipperLib::IntPoint>>>::_Vector_impl" = type { %"struct.std::_Vector_base<std::vector<ClipperLib::IntPoint>, std::allocator<std::vector<ClipperLib::IntPoint>>>::_Vector_impl_data" }
%"struct.std::_Vector_base<std::vector<ClipperLib::IntPoint>, std::allocator<std::vector<ClipperLib::IntPoint>>>::_Vector_impl_data" = type { ptr, ptr, ptr }

@.str.11 = private unnamed_addr constant [2 x i8] c"\0A\00", align 1

; Function Attrs: mustprogress nounwind uwtable
define linkonce_odr hidden noundef nonnull align 8 dereferenceable(24) ptr @_ZNKSt6vectorIS_IN10ClipperLib8IntPointESaIS1_EESaIS3_EEixEm(ptr noundef nonnull align 8 dereferenceable(24) %this, i64 noundef %__n) #1 comdat align 2 {
entry:
  %this.addr = alloca ptr, align 8
  %__n.addr = alloca i64, align 8
  store ptr %this, ptr %this.addr, align 8
  store i64 %__n, ptr %__n.addr, align 8
  %this1 = load ptr, ptr %this.addr, align 8
  %_M_impl = getelementptr inbounds %"struct.std::_Vector_base.29", ptr %this1, i32 0, i32 0
  %_M_start = getelementptr inbounds %"struct.std::_Vector_base<std::vector<ClipperLib::IntPoint>, std::allocator<std::vector<ClipperLib::IntPoint>>>::_Vector_impl_data", ptr %_M_impl, i32 0, i32 0
  %0 = load ptr, ptr %_M_start, align 8
  %1 = load i64, ptr %__n.addr, align 8
  %add.ptr = getelementptr inbounds %"class.std::vector", ptr %0, i64 %1
  ret ptr %add.ptr
}

; Function Attrs: mustprogress nounwind uwtable
define linkonce_odr hidden noundef i64 @_ZNKSt6vectorIS_IN10ClipperLib8IntPointESaIS1_EESaIS3_EE4sizeEv(ptr noundef nonnull align 8 dereferenceable(24) %this) #1 comdat align 2 {
entry:
  %this.addr = alloca ptr, align 8
  store ptr %this, ptr %this.addr, align 8
  %this1 = load ptr, ptr %this.addr, align 8
  %_M_impl = getelementptr inbounds %"struct.std::_Vector_base.29", ptr %this1, i32 0, i32 0
  %_M_finish = getelementptr inbounds %"struct.std::_Vector_base<std::vector<ClipperLib::IntPoint>, std::allocator<std::vector<ClipperLib::IntPoint>>>::_Vector_impl_data", ptr %_M_impl, i32 0, i32 1
  %0 = load ptr, ptr %_M_finish, align 8
  %_M_impl2 = getelementptr inbounds %"struct.std::_Vector_base.29", ptr %this1, i32 0, i32 0
  %_M_start = getelementptr inbounds %"struct.std::_Vector_base<std::vector<ClipperLib::IntPoint>, std::allocator<std::vector<ClipperLib::IntPoint>>>::_Vector_impl_data", ptr %_M_impl2, i32 0, i32 0
  %1 = load ptr, ptr %_M_start, align 8
  %sub.ptr.lhs.cast = ptrtoint ptr %0 to i64
  %sub.ptr.rhs.cast = ptrtoint ptr %1 to i64
  %sub.ptr.sub = sub i64 %sub.ptr.lhs.cast, %sub.ptr.rhs.cast
  %sub.ptr.div = sdiv exact i64 %sub.ptr.sub, 24
  ret i64 %sub.ptr.div
}

; Function Attrs: mustprogress uwtable
define hidden noundef nonnull align 8 dereferenceable(8) ptr @_ZN10ClipperLiblsERSoRKSt6vectorIS1_INS_8IntPointESaIS2_EESaIS4_EE(ptr noundef nonnull align 8 dereferenceable(8) %s, ptr noundef nonnull align 8 dereferenceable(24) %p) #0 {
entry:
  %s.addr = alloca ptr, align 8
  %p.addr = alloca ptr, align 8
  %i = alloca i64, align 8
  store ptr %s, ptr %s.addr, align 8
  store ptr %p, ptr %p.addr, align 8
  store i64 0, ptr %i, align 8
  br label %for.cond

for.cond:                                         ; preds = %for.inc, %entry
  %0 = load i64, ptr %i, align 8
  %1 = load ptr, ptr %p.addr, align 8
  %call = call noundef i64 @_ZNKSt6vectorIS_IN10ClipperLib8IntPointESaIS1_EESaIS3_EE4sizeEv(ptr noundef nonnull align 8 dereferenceable(24) %1) #13
  %cmp = icmp ult i64 %0, %call
  br i1 %cmp, label %for.body, label %for.end

for.body:                                         ; preds = %for.cond
  %2 = load ptr, ptr %s.addr, align 8
  %3 = load ptr, ptr %p.addr, align 8
  %4 = load i64, ptr %i, align 8
  %call1 = call noundef nonnull align 8 dereferenceable(24) ptr @_ZNKSt6vectorIS_IN10ClipperLib8IntPointESaIS1_EESaIS3_EEixEm(ptr noundef nonnull align 8 dereferenceable(24) %3, i64 noundef %4) #13
  %call2 = call noundef nonnull align 8 dereferenceable(8) ptr @_ZN10ClipperLiblsERSoRKSt6vectorINS_8IntPointESaIS2_EE(ptr noundef nonnull align 8 dereferenceable(8) %2, ptr noundef nonnull align 8 dereferenceable(24) %call1)
  br label %for.inc

for.inc:                                          ; preds = %for.body
  %5 = load i64, ptr %i, align 8
  %inc = add i64 %5, 1
  store i64 %inc, ptr %i, align 8
  br label %for.cond, !llvm.loop !161

for.end:                                          ; preds = %for.cond
  %6 = load ptr, ptr %s.addr, align 8
  %call3 = call noundef nonnull align 8 dereferenceable(8) ptr @_ZStlsISt11char_traitsIcEERSt13basic_ostreamIcT_ES5_PKc(ptr noundef nonnull align 8 dereferenceable(8) %6, ptr noundef @.str.11)
  %7 = load ptr, ptr %s.addr, align 8
  ret ptr %7
}