; Function Attrs: mustprogress uwtable
define hidden noundef nonnull align 8 dereferenceable(8) ptr @_ZN10ClipperLiblsERSoRKSt6vectorIS1_INS_8IntPointESaIS2_EESaIS4_EE(ptr noundef nonnull returned align 8 dereferenceable(8) %s, ptr nocapture noundef nonnull readonly align 8 dereferenceable(24) %p) local_unnamed_addr #0 {
entry:
  %_M_finish.i = getelementptr inbounds i8, ptr %p, i64 8
  %0 = load ptr, ptr %_M_finish.i, align 8
  %1 = load ptr, ptr %p, align 8
  %cmp10.not = icmp eq ptr %0, %1
  br i1 %cmp10.not, label %for.end, label %for.body

for.body:                                         ; preds = %entry, %for.body
  %2 = phi ptr [ %4, %for.body ], [ %1, %entry ]
  %i.011 = phi i64 [ %inc, %for.body ], [ 0, %entry ]
  %add.ptr.i = getelementptr inbounds %"class.std::vector", ptr %2, i64 %i.011
  %call2 = tail call noundef nonnull align 8 dereferenceable(8) ptr @_ZN10ClipperLiblsERSoRKSt6vectorINS_8IntPointESaIS2_EE(ptr noundef nonnull align 8 dereferenceable(8) %s, ptr noundef nonnull align 8 dereferenceable(24) %add.ptr.i)
  %inc = add nuw i64 %i.011, 1
  %3 = load ptr, ptr %_M_finish.i, align 8
  %4 = load ptr, ptr %p, align 8
  %sub.ptr.lhs.cast.i = ptrtoint ptr %3 to i64
  %sub.ptr.rhs.cast.i = ptrtoint ptr %4 to i64
  %sub.ptr.sub.i = sub i64 %sub.ptr.lhs.cast.i, %sub.ptr.rhs.cast.i
  %sub.ptr.div.i = sdiv exact i64 %sub.ptr.sub.i, 24
  %cmp = icmp ult i64 %inc, %sub.ptr.div.i
  br i1 %cmp, label %for.body, label %for.end, !llvm.loop !325

for.end:                                          ; preds = %for.body, %entry
  %call3 = tail call noundef nonnull align 8 dereferenceable(8) ptr @_ZStlsISt11char_traitsIcEERSt13basic_ostreamIcT_ES5_PKc(ptr noundef nonnull align 8 dereferenceable(8) %s, ptr noundef nonnull @.str.11)
  ret ptr %s
}